target datalayout = "e-m:e-p270:32:32-p271:32:32-p272:64:64-i64:64-i128:128-f80:128-n8:16:32:64-S128"
target triple = "x86_64-pc-linux-gnu"

%struct.pos = type { [4 x [4 x i16]], [4 x i16], [4 x [4 x i8]], [4 x i32], [50 x [4 x i16]], [50 x i32], [50 x %struct.moveType], i32, i32, [4 x %struct.highCardType], [4 x %struct.highCardType] }
%struct.highCardType = type { i32, i32 }
%struct.moveType = type { i32, i32, i32, i32 }

@partner = external global [4 x i32], align 16
@bitMapRank = external global [16 x i16], align 16

; Function Attrs: mustprogress nounwind uwtable
define linkonce_odr noundef nonnull align 4 dereferenceable(4) ptr @_ZSt3maxIiERKT_S2_S2_(ptr noundef nonnull align 4 dereferenceable(4) %0, ptr noundef nonnull align 4 dereferenceable(4) %1) #5 comdat {
  %3 = alloca ptr, align 8
  %4 = alloca ptr, align 8
  %5 = alloca ptr, align 8
  store ptr %0, ptr %4, align 8
  store ptr %1, ptr %5, align 8
  %6 = load ptr, ptr %4, align 8
  %7 = load i32, ptr %6, align 4
  %8 = load ptr, ptr %5, align 8
  %9 = load i32, ptr %8, align 4
  %10 = icmp slt i32 %7, %9
  br i1 %10, label %11, label %13

11:                                               ; preds = %2
  %12 = load ptr, ptr %5, align 8
  store ptr %12, ptr %3, align 8
  br label %15

13:                                               ; preds = %2
  %14 = load ptr, ptr %4, align 8
  store ptr %14, ptr %3, align 8
  br label %15

15:                                               ; preds = %13, %11
  %16 = load ptr, ptr %3, align 8
  ret ptr %16
}

; Function Attrs: mustprogress uwtable
define noundef i32 @_Z17QtricksLeadHandNTiR3posiiiiRiS1_biiiiiiS1_(i32 noundef %0, ptr noundef nonnull align 4 dereferenceable(1544) %1, i32 noundef %2, i32 noundef %3, i32 noundef %4, i32 noundef %5, ptr noundef nonnull align 4 dereferenceable(4) %6, ptr noundef nonnull align 4 dereferenceable(4) %7, i1 noundef zeroext %8, i32 noundef %9, i32 noundef %10, i32 noundef %11, i32 noundef %12, i32 noundef %13, i32 noundef %14, ptr noundef nonnull align 4 dereferenceable(4) %15) #4 {
  %17 = alloca i32, align 4
  %18 = alloca i32, align 4
  %19 = alloca ptr, align 8
  %20 = alloca i32, align 4
  %21 = alloca i32, align 4
  %22 = alloca i32, align 4
  %23 = alloca i32, align 4
  %24 = alloca ptr, align 8
  %25 = alloca ptr, align 8
  %26 = alloca i8, align 1
  %27 = alloca i32, align 4
  %28 = alloca i32, align 4
  %29 = alloca i32, align 4
  %30 = alloca i32, align 4
  %31 = alloca i32, align 4
  %32 = alloca i32, align 4
  %33 = alloca ptr, align 8
  %34 = alloca i32, align 4
  %35 = alloca i32, align 4
  %36 = alloca i32, align 4
  %37 = alloca i32, align 4
  %38 = alloca i32, align 4
  %39 = alloca i32, align 4
  %40 = alloca i32, align 4
  %41 = alloca i32, align 4
  %42 = alloca i32, align 4
  %43 = alloca i32, align 4
  %44 = alloca i32, align 4
  %45 = alloca i32, align 4
  %46 = alloca i32, align 4
  %47 = alloca i32, align 4
  %48 = alloca i32, align 4
  store i32 %0, ptr %18, align 4
  store ptr %1, ptr %19, align 8
  store i32 %2, ptr %20, align 4
  store i32 %3, ptr %21, align 4
  store i32 %4, ptr %22, align 4
  store i32 %5, ptr %23, align 4
  store ptr %6, ptr %24, align 8
  store ptr %7, ptr %25, align 8
  %49 = zext i1 %8 to i8
  store i8 %49, ptr %26, align 1
  store i32 %9, ptr %27, align 4
  store i32 %10, ptr %28, align 4
  store i32 %11, ptr %29, align 4
  store i32 %12, ptr %30, align 4
  store i32 %13, ptr %31, align 4
  store i32 %14, ptr %32, align 4
  store ptr %15, ptr %33, align 8
  %50 = load ptr, ptr %33, align 8
  store i32 1, ptr %50, align 4
  %51 = load i32, ptr %31, align 4
  store i32 %51, ptr %34, align 4
  %52 = load ptr, ptr %19, align 8
  %53 = getelementptr inbounds nuw %struct.pos, ptr %52, i32 0, i32 9
  %54 = load i32, ptr %30, align 4
  %55 = sext i32 %54 to i64
  %56 = getelementptr inbounds [4 x %struct.highCardType], ptr %53, i64 0, i64 %55
  %57 = getelementptr inbounds nuw %struct.highCardType, ptr %56, i32 0, i32 0
  %58 = load i32, ptr %57, align 4
  %59 = sext i32 %58 to i64
  %60 = getelementptr inbounds [16 x i16], ptr @bitMapRank, i64 0, i64 %59
  %61 = load i16, ptr %60, align 2
  %62 = zext i16 %61 to i32
  %63 = load ptr, ptr %19, align 8
  %64 = getelementptr inbounds nuw %struct.pos, ptr %63, i32 0, i32 4
  %65 = load i32, ptr %21, align 4
  %66 = sext i32 %65 to i64
  %67 = getelementptr inbounds [50 x [4 x i16]], ptr %64, i64 0, i64 %66
  %68 = load i32, ptr %30, align 4
  %69 = sext i32 %68 to i64
  %70 = getelementptr inbounds [4 x i16], ptr %67, i64 0, i64 %69
  %71 = load i16, ptr %70, align 2
  %72 = zext i16 %71 to i32
  %73 = or i32 %72, %62
  %74 = trunc i32 %73 to i16
  store i16 %74, ptr %70, align 2
  %75 = load i32, ptr %34, align 4
  %76 = add nsw i32 %75, 1
  store i32 %76, ptr %34, align 4
  %77 = load i32, ptr %34, align 4
  %78 = load i32, ptr %20, align 4
  %79 = icmp sge i32 %77, %78
  br i1 %79, label %80, label %82

80:                                               ; preds = %16
  %81 = load i32, ptr %34, align 4
  store i32 %81, ptr %17, align 4
  br label %324

82:                                               ; preds = %16
  %83 = load i32, ptr %32, align 4
  %84 = load i32, ptr %30, align 4
  %85 = icmp eq i32 %83, %84
  br i1 %85, label %86, label %106

86:                                               ; preds = %82
  %87 = load i8, ptr %26, align 1
  %88 = trunc i8 %87 to i1
  br i1 %88, label %89, label %93

89:                                               ; preds = %86
  %90 = load i32, ptr %30, align 4
  %91 = load i32, ptr %27, align 4
  %92 = icmp ne i32 %90, %91
  br i1 %92, label %93, label %106

93:                                               ; preds = %89, %86
  store i32 0, ptr %35, align 4
  %94 = load ptr, ptr %24, align 8
  %95 = load i32, ptr %94, align 4
  %96 = sub nsw i32 %95, 1
  store i32 %96, ptr %36, align 4
  %97 = call noundef nonnull align 4 dereferenceable(4) ptr @_ZSt3maxIiERKT_S2_S2_(ptr noundef nonnull align 4 dereferenceable(4) %35, ptr noundef nonnull align 4 dereferenceable(4) %36)
  %98 = load i32, ptr %97, align 4
  %99 = load ptr, ptr %24, align 8
  store i32 %98, ptr %99, align 4
  store i32 0, ptr %37, align 4
  %100 = load ptr, ptr %25, align 8
  %101 = load i32, ptr %100, align 4
  %102 = sub nsw i32 %101, 1
  store i32 %102, ptr %38, align 4
  %103 = call noundef nonnull align 4 dereferenceable(4) ptr @_ZSt3maxIiERKT_S2_S2_(ptr noundef nonnull align 4 dereferenceable(4) %37, ptr noundef nonnull align 4 dereferenceable(4) %38)
  %104 = load i32, ptr %103, align 4
  %105 = load ptr, ptr %25, align 8
  store i32 %104, ptr %105, align 4
  br label %106

106:                                              ; preds = %93, %89, %82
  %107 = load i32, ptr %22, align 4
  %108 = icmp sle i32 %107, 1
  br i1 %108, label %109, label %128

109:                                              ; preds = %106
  %110 = load i32, ptr %23, align 4
  %111 = icmp sle i32 %110, 1
  br i1 %111, label %112, label %128

112:                                              ; preds = %109
  %113 = load i32, ptr %29, align 4
  %114 = icmp sle i32 %113, 1
  br i1 %114, label %115, label %128

115:                                              ; preds = %112
  %116 = load i32, ptr %28, align 4
  %117 = sub nsw i32 %116, 1
  %118 = load i32, ptr %34, align 4
  %119 = add nsw i32 %118, %117
  store i32 %119, ptr %34, align 4
  %120 = load i32, ptr %34, align 4
  %121 = load i32, ptr %20, align 4
  %122 = icmp sge i32 %120, %121
  br i1 %122, label %123, label %125

123:                                              ; preds = %115
  %124 = load i32, ptr %34, align 4
  store i32 %124, ptr %17, align 4
  br label %324

125:                                              ; preds = %115
  %126 = load ptr, ptr %33, align 8
  store i32 2, ptr %126, align 4
  %127 = load i32, ptr %34, align 4
  store i32 %127, ptr %17, align 4
  br label %324

128:                                              ; preds = %112, %109, %106
  %129 = load ptr, ptr %19, align 8
  %130 = getelementptr inbounds nuw %struct.pos, ptr %129, i32 0, i32 10
  %131 = load i32, ptr %30, align 4
  %132 = sext i32 %131 to i64
  %133 = getelementptr inbounds [4 x %struct.highCardType], ptr %130, i64 0, i64 %132
  %134 = getelementptr inbounds nuw %struct.highCardType, ptr %133, i32 0, i32 1
  %135 = load i32, ptr %134, align 4
  %136 = load i32, ptr %18, align 4
  %137 = icmp eq i32 %135, %136
  br i1 %137, label %138, label %216

138:                                              ; preds = %128
  %139 = load ptr, ptr %19, align 8
  %140 = getelementptr inbounds nuw %struct.pos, ptr %139, i32 0, i32 10
  %141 = load i32, ptr %30, align 4
  %142 = sext i32 %141 to i64
  %143 = getelementptr inbounds [4 x %struct.highCardType], ptr %140, i64 0, i64 %142
  %144 = getelementptr inbounds nuw %struct.highCardType, ptr %143, i32 0, i32 0
  %145 = load i32, ptr %144, align 4
  %146 = sext i32 %145 to i64
  %147 = getelementptr inbounds [16 x i16], ptr @bitMapRank, i64 0, i64 %146
  %148 = load i16, ptr %147, align 2
  %149 = zext i16 %148 to i32
  %150 = load ptr, ptr %19, align 8
  %151 = getelementptr inbounds nuw %struct.pos, ptr %150, i32 0, i32 4
  %152 = load i32, ptr %21, align 4
  %153 = sext i32 %152 to i64
  %154 = getelementptr inbounds [50 x [4 x i16]], ptr %151, i64 0, i64 %153
  %155 = load i32, ptr %30, align 4
  %156 = sext i32 %155 to i64
  %157 = getelementptr inbounds [4 x i16], ptr %154, i64 0, i64 %156
  %158 = load i16, ptr %157, align 2
  %159 = zext i16 %158 to i32
  %160 = or i32 %159, %149
  %161 = trunc i32 %160 to i16
  store i16 %161, ptr %157, align 2
  %162 = load i32, ptr %34, align 4
  %163 = add nsw i32 %162, 1
  store i32 %163, ptr %34, align 4
  %164 = load i32, ptr %34, align 4
  %165 = load i32, ptr %20, align 4
  %166 = icmp sge i32 %164, %165
  br i1 %166, label %167, label %169

167:                                              ; preds = %138
  %168 = load i32, ptr %34, align 4
  store i32 %168, ptr %17, align 4
  br label %324

169:                                              ; preds = %138
  %170 = load i32, ptr %32, align 4
  %171 = load i32, ptr %30, align 4
  %172 = icmp eq i32 %170, %171
  br i1 %172, label %173, label %193

173:                                              ; preds = %169
  %174 = load i8, ptr %26, align 1
  %175 = trunc i8 %174 to i1
  br i1 %175, label %176, label %180

176:                                              ; preds = %173
  %177 = load i32, ptr %30, align 4
  %178 = load i32, ptr %27, align 4
  %179 = icmp ne i32 %177, %178
  br i1 %179, label %180, label %193

180:                                              ; preds = %176, %173
  store i32 0, ptr %39, align 4
  %181 = load ptr, ptr %24, align 8
  %182 = load i32, ptr %181, align 4
  %183 = sub nsw i32 %182, 1
  store i32 %183, ptr %40, align 4
  %184 = call noundef nonnull align 4 dereferenceable(4) ptr @_ZSt3maxIiERKT_S2_S2_(ptr noundef nonnull align 4 dereferenceable(4) %39, ptr noundef nonnull align 4 dereferenceable(4) %40)
  %185 = load i32, ptr %184, align 4
  %186 = load ptr, ptr %24, align 8
  store i32 %185, ptr %186, align 4
  store i32 0, ptr %41, align 4
  %187 = load ptr, ptr %25, align 8
  %188 = load i32, ptr %187, align 4
  %189 = sub nsw i32 %188, 1
  store i32 %189, ptr %42, align 4
  %190 = call noundef nonnull align 4 dereferenceable(4) ptr @_ZSt3maxIiERKT_S2_S2_(ptr noundef nonnull align 4 dereferenceable(4) %41, ptr noundef nonnull align 4 dereferenceable(4) %42)
  %191 = load i32, ptr %190, align 4
  %192 = load ptr, ptr %25, align 8
  store i32 %191, ptr %192, align 4
  br label %193

193:                                              ; preds = %180, %176, %169
  %194 = load i32, ptr %22, align 4
  %195 = icmp sle i32 %194, 2
  br i1 %195, label %196, label %215

196:                                              ; preds = %193
  %197 = load i32, ptr %23, align 4
  %198 = icmp sle i32 %197, 2
  br i1 %198, label %199, label %215

199:                                              ; preds = %196
  %200 = load i32, ptr %29, align 4
  %201 = icmp sle i32 %200, 2
  br i1 %201, label %202, label %215

202:                                              ; preds = %199
  %203 = load i32, ptr %28, align 4
  %204 = sub nsw i32 %203, 2
  %205 = load i32, ptr %34, align 4
  %206 = add nsw i32 %205, %204
  store i32 %206, ptr %34, align 4
  %207 = load i32, ptr %34, align 4
  %208 = load i32, ptr %20, align 4
  %209 = icmp sge i32 %207, %208
  br i1 %209, label %210, label %212

210:                                              ; preds = %202
  %211 = load i32, ptr %34, align 4
  store i32 %211, ptr %17, align 4
  br label %324

212:                                              ; preds = %202
  %213 = load ptr, ptr %33, align 8
  store i32 2, ptr %213, align 4
  %214 = load i32, ptr %34, align 4
  store i32 %214, ptr %17, align 4
  br label %324

215:                                              ; preds = %199, %196, %193
  br label %321

216:                                              ; preds = %128
  %217 = load ptr, ptr %19, align 8
  %218 = getelementptr inbounds nuw %struct.pos, ptr %217, i32 0, i32 10
  %219 = load i32, ptr %30, align 4
  %220 = sext i32 %219 to i64
  %221 = getelementptr inbounds [4 x %struct.highCardType], ptr %218, i64 0, i64 %220
  %222 = getelementptr inbounds nuw %struct.highCardType, ptr %221, i32 0, i32 1
  %223 = load i32, ptr %222, align 4
  %224 = load i32, ptr %18, align 4
  %225 = sext i32 %224 to i64
  %226 = getelementptr inbounds [4 x i32], ptr @partner, i64 0, i64 %225
  %227 = load i32, ptr %226, align 4
  %228 = icmp eq i32 %223, %227
  br i1 %228, label %229, label %320

229:                                              ; preds = %216
  %230 = load i32, ptr %28, align 4
  %231 = icmp sgt i32 %230, 1
  br i1 %231, label %232, label %320

232:                                              ; preds = %229
  %233 = load i32, ptr %29, align 4
  %234 = icmp sgt i32 %233, 1
  br i1 %234, label %235, label %320

235:                                              ; preds = %232
  %236 = load ptr, ptr %19, align 8
  %237 = getelementptr inbounds nuw %struct.pos, ptr %236, i32 0, i32 10
  %238 = load i32, ptr %30, align 4
  %239 = sext i32 %238 to i64
  %240 = getelementptr inbounds [4 x %struct.highCardType], ptr %237, i64 0, i64 %239
  %241 = getelementptr inbounds nuw %struct.highCardType, ptr %240, i32 0, i32 0
  %242 = load i32, ptr %241, align 4
  %243 = sext i32 %242 to i64
  %244 = getelementptr inbounds [16 x i16], ptr @bitMapRank, i64 0, i64 %243
  %245 = load i16, ptr %244, align 2
  %246 = zext i16 %245 to i32
  %247 = load ptr, ptr %19, align 8
  %248 = getelementptr inbounds nuw %struct.pos, ptr %247, i32 0, i32 4
  %249 = load i32, ptr %21, align 4
  %250 = sext i32 %249 to i64
  %251 = getelementptr inbounds [50 x [4 x i16]], ptr %248, i64 0, i64 %250
  %252 = load i32, ptr %30, align 4
  %253 = sext i32 %252 to i64
  %254 = getelementptr inbounds [4 x i16], ptr %251, i64 0, i64 %253
  %255 = load i16, ptr %254, align 2
  %256 = zext i16 %255 to i32
  %257 = or i32 %256, %246
  %258 = trunc i32 %257 to i16
  store i16 %258, ptr %254, align 2
  %259 = load i32, ptr %34, align 4
  %260 = add nsw i32 %259, 1
  store i32 %260, ptr %34, align 4
  %261 = load i32, ptr %34, align 4
  %262 = load i32, ptr %20, align 4
  %263 = icmp sge i32 %261, %262
  br i1 %263, label %264, label %266

264:                                              ; preds = %235
  %265 = load i32, ptr %34, align 4
  store i32 %265, ptr %17, align 4
  br label %324

266:                                              ; preds = %235
  %267 = load i32, ptr %32, align 4
  %268 = load i32, ptr %30, align 4
  %269 = icmp eq i32 %267, %268
  br i1 %269, label %270, label %290

270:                                              ; preds = %266
  %271 = load i8, ptr %26, align 1
  %272 = trunc i8 %271 to i1
  br i1 %272, label %273, label %277

273:                                              ; preds = %270
  %274 = load i32, ptr %30, align 4
  %275 = load i32, ptr %27, align 4
  %276 = icmp ne i32 %274, %275
  br i1 %276, label %277, label %290

277:                                              ; preds = %273, %270
  store i32 0, ptr %43, align 4
  %278 = load ptr, ptr %24, align 8
  %279 = load i32, ptr %278, align 4
  %280 = sub nsw i32 %279, 1
  store i32 %280, ptr %44, align 4
  %281 = call noundef nonnull align 4 dereferenceable(4) ptr @_ZSt3maxIiERKT_S2_S2_(ptr noundef nonnull align 4 dereferenceable(4) %43, ptr noundef nonnull align 4 dereferenceable(4) %44)
  %282 = load i32, ptr %281, align 4
  %283 = load ptr, ptr %24, align 8
  store i32 %282, ptr %283, align 4
  store i32 0, ptr %45, align 4
  %284 = load ptr, ptr %25, align 8
  %285 = load i32, ptr %284, align 4
  %286 = sub nsw i32 %285, 1
  store i32 %286, ptr %46, align 4
  %287 = call noundef nonnull align 4 dereferenceable(4) ptr @_ZSt3maxIiERKT_S2_S2_(ptr noundef nonnull align 4 dereferenceable(4) %45, ptr noundef nonnull align 4 dereferenceable(4) %46)
  %288 = load i32, ptr %287, align 4
  %289 = load ptr, ptr %25, align 8
  store i32 %288, ptr %289, align 4
  br label %290

290:                                              ; preds = %277, %273, %266
  %291 = load i32, ptr %22, align 4
  %292 = icmp sle i32 %291, 2
  br i1 %292, label %293, label %319

293:                                              ; preds = %290
  %294 = load i32, ptr %23, align 4
  %295 = icmp sle i32 %294, 2
  br i1 %295, label %296, label %319

296:                                              ; preds = %293
  %297 = load i32, ptr %29, align 4
  %298 = icmp sle i32 %297, 2
  br i1 %298, label %302, label %299

299:                                              ; preds = %296
  %300 = load i32, ptr %28, align 4
  %301 = icmp sle i32 %300, 2
  br i1 %301, label %302, label %319

302:                                              ; preds = %299, %296
  %303 = load i32, ptr %28, align 4
  %304 = sub nsw i32 %303, 2
  store i32 %304, ptr %47, align 4
  %305 = load i32, ptr %29, align 4
  %306 = sub nsw i32 %305, 2
  store i32 %306, ptr %48, align 4
  %307 = call noundef nonnull align 4 dereferenceable(4) ptr @_ZSt3maxIiERKT_S2_S2_(ptr noundef nonnull align 4 dereferenceable(4) %47, ptr noundef nonnull align 4 dereferenceable(4) %48)
  %308 = load i32, ptr %307, align 4
  %309 = load i32, ptr %34, align 4
  %310 = add nsw i32 %309, %308
  store i32 %310, ptr %34, align 4
  %311 = load i32, ptr %34, align 4
  %312 = load i32, ptr %20, align 4
  %313 = icmp sge i32 %311, %312
  br i1 %313, label %314, label %316

314:                                              ; preds = %302
  %315 = load i32, ptr %34, align 4
  store i32 %315, ptr %17, align 4
  br label %324

316:                                              ; preds = %302
  %317 = load ptr, ptr %33, align 8
  store i32 2, ptr %317, align 4
  %318 = load i32, ptr %34, align 4
  store i32 %318, ptr %17, align 4
  br label %324

319:                                              ; preds = %299, %293, %290
  br label %320

320:                                              ; preds = %319, %232, %229, %216
  br label %321

321:                                              ; preds = %320, %215
  %322 = load ptr, ptr %33, align 8
  store i32 0, ptr %322, align 4
  %323 = load i32, ptr %34, align 4
  store i32 %323, ptr %17, align 4
  br label %324

324:                                              ; preds = %321, %316, %314, %264, %212, %210, %167, %125, %123, %80
  %325 = load i32, ptr %17, align 4
  ret i32 %325
}