; Function Attrs: mustprogress nofree norecurse nosync nounwind willreturn memory(read, argmem: readwrite, inaccessiblemem: none) uwtable
define noundef i32 @_Z17QtricksLeadHandNTiR3posiiiiRiS1_biiiiiiS1_(i32 noundef %0, ptr nocapture noundef nonnull align 4 dereferenceable(1544) %1, i32 noundef %2, i32 noundef %3, i32 noundef %4, i32 noundef %5, ptr nocapture noundef nonnull align 4 dereferenceable(4) %6, ptr nocapture noundef nonnull align 4 dereferenceable(4) %7, i1 noundef zeroext %8, i32 noundef %9, i32 noundef %10, i32 noundef %11, i32 noundef %12, i32 noundef %13, i32 noundef %14, ptr nocapture noundef nonnull writeonly align 4 dereferenceable(4) %15) local_unnamed_addr #4 {
  store i32 1, ptr %15, align 4
  %17 = getelementptr inbounds nuw i8, ptr %1, i64 1480
  %18 = sext i32 %12 to i64
  %19 = getelementptr inbounds [4 x %struct.highCardType], ptr %17, i64 0, i64 %18
  %20 = load i32, ptr %19, align 4
  %21 = sext i32 %20 to i64
  %22 = getelementptr inbounds [16 x i16], ptr @bitMapRank, i64 0, i64 %21
  %23 = load i16, ptr %22, align 2
  %24 = getelementptr inbounds nuw i8, ptr %1, i64 72
  %25 = sext i32 %3 to i64
  %26 = getelementptr inbounds [50 x [4 x i16]], ptr %24, i64 0, i64 %25, i64 %18
  %27 = load i16, ptr %26, align 2
  %28 = or i16 %27, %23
  store i16 %28, ptr %26, align 2
  %29 = add nsw i32 %13, 1
  %.not = icmp slt i32 %29, %2
  br i1 %.not, label %30, label %100

30:                                               ; preds = %16
  %31 = icmp ne i32 %14, %12
  %.not132 = icmp eq i32 %12, %9
  %or.cond140 = and i1 %8, %.not132
  %or.cond144 = or i1 %or.cond140, %31
  br i1 %or.cond144, label %37, label %32

32:                                               ; preds = %30
  %33 = load i32, ptr %6, align 4
  %34 = tail call i32 @llvm.smax.i32(i32 %33, i32 1)
  %.sroa.speculated183 = add nsw i32 %34, -1
  store i32 %.sroa.speculated183, ptr %6, align 4
  %35 = load i32, ptr %7, align 4
  %36 = tail call i32 @llvm.smax.i32(i32 %35, i32 1)
  %.sroa.speculated178 = add nsw i32 %36, -1
  store i32 %.sroa.speculated178, ptr %7, align 4
  br label %37

37:                                               ; preds = %32, %30
  %38 = icmp slt i32 %4, 2
  %39 = icmp slt i32 %5, 2
  %or.cond = and i1 %38, %39
  %40 = icmp slt i32 %11, 2
  %or.cond3 = and i1 %or.cond, %40
  br i1 %or.cond3, label %41, label %43

41:                                               ; preds = %37
  %42 = add i32 %13, %10
  %.not139 = icmp slt i32 %42, %2
  br i1 %.not139, label %.sink.split, label %100

43:                                               ; preds = %37
  %44 = getelementptr inbounds nuw i8, ptr %1, i64 1512
  %45 = getelementptr inbounds [4 x %struct.highCardType], ptr %44, i64 0, i64 %18
  %46 = getelementptr inbounds nuw i8, ptr %45, i64 4
  %47 = load i32, ptr %46, align 4
  %48 = icmp eq i32 %47, %0
  br i1 %48, label %49, label %69

49:                                               ; preds = %43
  %50 = load i32, ptr %45, align 4
  %51 = sext i32 %50 to i64
  %52 = getelementptr inbounds [16 x i16], ptr @bitMapRank, i64 0, i64 %51
  %53 = load i16, ptr %52, align 2
  %54 = load i16, ptr %26, align 2
  %55 = or i16 %54, %53
  store i16 %55, ptr %26, align 2
  %56 = add nsw i32 %13, 2
  %.not136 = icmp slt i32 %56, %2
  br i1 %.not136, label %57, label %100

57:                                               ; preds = %49
  br i1 %or.cond144, label %63, label %58

58:                                               ; preds = %57
  %59 = load i32, ptr %6, align 4
  %60 = tail call i32 @llvm.smax.i32(i32 %59, i32 1)
  %.sroa.speculated173 = add nsw i32 %60, -1
  store i32 %.sroa.speculated173, ptr %6, align 4
  %61 = load i32, ptr %7, align 4
  %62 = tail call i32 @llvm.smax.i32(i32 %61, i32 1)
  %.sroa.speculated168 = add nsw i32 %62, -1
  store i32 %.sroa.speculated168, ptr %7, align 4
  br label %63

63:                                               ; preds = %58, %57
  %64 = icmp slt i32 %4, 3
  %65 = icmp slt i32 %5, 3
  %or.cond5 = and i1 %64, %65
  %66 = icmp slt i32 %11, 3
  %or.cond7 = and i1 %or.cond5, %66
  br i1 %or.cond7, label %67, label %.sink.split

67:                                               ; preds = %63
  %68 = add i32 %13, %10
  %.not138 = icmp slt i32 %68, %2
  br i1 %.not138, label %.sink.split, label %100

69:                                               ; preds = %43
  %70 = sext i32 %0 to i64
  %71 = getelementptr inbounds [4 x i32], ptr @partner, i64 0, i64 %70
  %72 = load i32, ptr %71, align 4
  %73 = icmp eq i32 %47, %72
  %74 = icmp sgt i32 %10, 1
  %or.cond9 = and i1 %74, %73
  %75 = icmp sgt i32 %11, 1
  %or.cond11 = and i1 %75, %or.cond9
  br i1 %or.cond11, label %76, label %.sink.split

76:                                               ; preds = %69
  %77 = load i32, ptr %45, align 4
  %78 = sext i32 %77 to i64
  %79 = getelementptr inbounds [16 x i16], ptr @bitMapRank, i64 0, i64 %78
  %80 = load i16, ptr %79, align 2
  %81 = load i16, ptr %26, align 2
  %82 = or i16 %81, %80
  store i16 %82, ptr %26, align 2
  %83 = add nsw i32 %13, 2
  %.not133 = icmp slt i32 %83, %2
  br i1 %.not133, label %84, label %100

84:                                               ; preds = %76
  br i1 %or.cond144, label %90, label %85

85:                                               ; preds = %84
  %86 = load i32, ptr %6, align 4
  %87 = tail call i32 @llvm.smax.i32(i32 %86, i32 1)
  %.sroa.speculated163 = add nsw i32 %87, -1
  store i32 %.sroa.speculated163, ptr %6, align 4
  %88 = load i32, ptr %7, align 4
  %89 = tail call i32 @llvm.smax.i32(i32 %88, i32 1)
  %.sroa.speculated158 = add nsw i32 %89, -1
  store i32 %.sroa.speculated158, ptr %7, align 4
  br label %90

90:                                               ; preds = %85, %84
  %91 = icmp slt i32 %4, 3
  %92 = icmp slt i32 %5, 3
  %or.cond13 = and i1 %91, %92
  br i1 %or.cond13, label %93, label %.sink.split

93:                                               ; preds = %90
  %94 = icmp ult i32 %11, 3
  %95 = icmp ult i32 %10, 3
  %or.cond15 = or i1 %95, %94
  br i1 %or.cond15, label %96, label %.sink.split

96:                                               ; preds = %93
  %97 = add nsw i32 %10, -2
  %98 = add nsw i32 %11, -2
  %.sroa.speculated = tail call i32 @llvm.umax.i32(i32 %97, i32 %98)
  %99 = add nsw i32 %83, %.sroa.speculated
  %.not135 = icmp slt i32 %99, %2
  br i1 %.not135, label %.sink.split, label %100

.sink.split:                                      ; preds = %63, %90, %93, %69, %96, %67, %41
  %.sink = phi i32 [ 2, %41 ], [ 2, %67 ], [ 2, %96 ], [ 0, %69 ], [ 0, %93 ], [ 0, %90 ], [ 0, %63 ]
  %.0113.ph = phi i32 [ %42, %41 ], [ %68, %67 ], [ %99, %96 ], [ %29, %69 ], [ %83, %93 ], [ %83, %90 ], [ %56, %63 ]
  store i32 %.sink, ptr %15, align 4
  br label %100

100:                                              ; preds = %.sink.split, %96, %76, %67, %49, %41, %16
  %.0113 = phi i32 [ %29, %16 ], [ %42, %41 ], [ %56, %49 ], [ %68, %67 ], [ %83, %76 ], [ %99, %96 ], [ %.0113.ph, %.sink.split ]
  ret i32 %.0113
}